target datalayout = "e-m:e-p270:32:32-p271:32:32-p272:64:64-i64:64-i128:128-f80:128-n8:16:32:64-S128"
target triple = "x86_64-pc-linux-gnu"

%struct.ident_t = type { i32, i32, i32, i32, ptr }
%"class.ncnn::LSTM_x86_avx" = type { %"class.ncnn::LSTM", %"class.ncnn::Mat", %"class.ncnn::Mat", %"class.ncnn::Mat", %"class.ncnn::Mat", %"class.ncnn::Mat" }
%"class.ncnn::LSTM" = type { %"class.ncnn::Layer", i32, i32, i32, i32, i32, %"class.ncnn::Mat", %"class.ncnn::Mat", %"class.ncnn::Mat", %"class.ncnn::Mat", %"class.ncnn::Mat", %"class.ncnn::Mat" }
%"class.ncnn::Layer" = type { ptr, i8, i8, i8, i8, i8, i8, i8, i8, i8, i8, i8, i8, i8, i8, i8, i8, i8, i8, i8, i8, i32, ptr, i32, %"class.std::__cxx11::basic_string", %"class.std::__cxx11::basic_string", %"class.std::vector", %"class.std::vector", %"class.std::vector.3", %"class.std::vector.3" }
%"class.std::__cxx11::basic_string" = type { %"struct.std::__cxx11::basic_string<char>::_Alloc_hider", i64, %union.anon }
%"struct.std::__cxx11::basic_string<char>::_Alloc_hider" = type { ptr }
%union.anon = type { i64, [8 x i8] }
%"class.std::vector" = type { %"struct.std::_Vector_base" }
%"struct.std::_Vector_base" = type { %"struct.std::_Vector_base<int, std::allocator<int>>::_Vector_impl" }
%"struct.std::_Vector_base<int, std::allocator<int>>::_Vector_impl" = type { %"struct.std::_Vector_base<int, std::allocator<int>>::_Vector_impl_data" }
%"struct.std::_Vector_base<int, std::allocator<int>>::_Vector_impl_data" = type { ptr, ptr, ptr }
%"class.std::vector.3" = type { %"struct.std::_Vector_base.4" }
%"struct.std::_Vector_base.4" = type { %"struct.std::_Vector_base<ncnn::Mat, std::allocator<ncnn::Mat>>::_Vector_impl" }
%"struct.std::_Vector_base<ncnn::Mat, std::allocator<ncnn::Mat>>::_Vector_impl" = type { %"struct.std::_Vector_base<ncnn::Mat, std::allocator<ncnn::Mat>>::_Vector_impl_data" }
%"struct.std::_Vector_base<ncnn::Mat, std::allocator<ncnn::Mat>>::_Vector_impl_data" = type { ptr, ptr, ptr }
%"class.ncnn::Mat" = type { ptr, ptr, i64, i32, ptr, i32, i32, i32, i32, i32, i64 }
%"class.ncnn::Option" = type { i8, i32, ptr, ptr, i32, i8, i8, i8, i8, i8, i8, i8, i8, i8, i8, i8, i8, i8, i8, i8, i8, i8, i8, i8, i8, i32, i8, i8, i8, i8, i8, i8, i8, i8, i8, i8, i8, i8 }

@2 = private unnamed_addr constant %struct.ident_t { i32 0, i32 2, i32 0, i32 22, ptr @0 }, align 8

; Function Attrs: alwaysinline mustprogress nounwind uwtable
define internal void @_ZN4ncnnL8fastFreeEPv(ptr noundef %0) #3 {
  %2 = alloca ptr, align 8
  store ptr %0, ptr %2, align 8, !tbaa !70
  %3 = load ptr, ptr %2, align 8, !tbaa !70
  %4 = icmp ne ptr %3, null
  br i1 %4, label %5, label %7

5:                                                ; preds = %1
  %6 = load ptr, ptr %2, align 8, !tbaa !70
  call void @free(ptr noundef %6) #9
  br label %7

7:                                                ; preds = %5, %1
  ret void
}

; Function Attrs: alwaysinline mustprogress uwtable
define linkonce_odr hidden void @_ZN4ncnn3Mat7releaseEv(ptr noundef nonnull align 8 dereferenceable(72) %0) #4 comdat align 2 {
  %2 = alloca ptr, align 8
  %3 = alloca i32, align 4
  %4 = alloca i32, align 4
  store ptr %0, ptr %2, align 8, !tbaa !46
  %5 = load ptr, ptr %2, align 8
  %6 = getelementptr inbounds nuw %"class.ncnn::Mat", ptr %5, i32 0, i32 1
  %7 = load ptr, ptr %6, align 8, !tbaa !59
  %8 = icmp ne ptr %7, null
  br i1 %8, label %9, label %32

9:                                                ; preds = %1
  %10 = getelementptr inbounds nuw %"class.ncnn::Mat", ptr %5, i32 0, i32 1
  %11 = load ptr, ptr %10, align 8, !tbaa !59
  store i32 -1, ptr %3, align 4, !tbaa !35
  %12 = load i32, ptr %3, align 4
  %13 = atomicrmw add ptr %11, i32 %12 acq_rel, align 4
  store i32 %13, ptr %4, align 4
  %14 = load i32, ptr %4, align 4, !tbaa !35
  %15 = icmp eq i32 %14, 1
  br i1 %15, label %16, label %32

16:                                               ; preds = %9
  %17 = getelementptr inbounds nuw %"class.ncnn::Mat", ptr %5, i32 0, i32 4
  %18 = load ptr, ptr %17, align 8, !tbaa !62
  %19 = icmp ne ptr %18, null
  br i1 %19, label %20, label %28

20:                                               ; preds = %16
  %21 = getelementptr inbounds nuw %"class.ncnn::Mat", ptr %5, i32 0, i32 4
  %22 = load ptr, ptr %21, align 8, !tbaa !62
  %23 = getelementptr inbounds nuw %"class.ncnn::Mat", ptr %5, i32 0, i32 0
  %24 = load ptr, ptr %23, align 8, !tbaa !58
  %25 = load ptr, ptr %22, align 8, !tbaa !9
  %26 = getelementptr inbounds ptr, ptr %25, i64 3
  %27 = load ptr, ptr %26, align 8
  call void %27(ptr noundef nonnull align 8 dereferenceable(8) %22, ptr noundef %24)
  br label %31

28:                                               ; preds = %16
  %29 = getelementptr inbounds nuw %"class.ncnn::Mat", ptr %5, i32 0, i32 0
  %30 = load ptr, ptr %29, align 8, !tbaa !58
  call void @_ZN4ncnnL8fastFreeEPv(ptr noundef %30)
  br label %31

31:                                               ; preds = %28, %20
  br label %32

32:                                               ; preds = %31, %9, %1
  %33 = getelementptr inbounds nuw %"class.ncnn::Mat", ptr %5, i32 0, i32 0
  store ptr null, ptr %33, align 8, !tbaa !58
  %34 = getelementptr inbounds nuw %"class.ncnn::Mat", ptr %5, i32 0, i32 2
  store i64 0, ptr %34, align 8, !tbaa !60
  %35 = getelementptr inbounds nuw %"class.ncnn::Mat", ptr %5, i32 0, i32 3
  store i32 0, ptr %35, align 8, !tbaa !61
  %36 = getelementptr inbounds nuw %"class.ncnn::Mat", ptr %5, i32 0, i32 5
  store i32 0, ptr %36, align 8, !tbaa !63
  %37 = getelementptr inbounds nuw %"class.ncnn::Mat", ptr %5, i32 0, i32 6
  store i32 0, ptr %37, align 4, !tbaa !64
  %38 = getelementptr inbounds nuw %"class.ncnn::Mat", ptr %5, i32 0, i32 7
  store i32 0, ptr %38, align 8, !tbaa !47
  %39 = getelementptr inbounds nuw %"class.ncnn::Mat", ptr %5, i32 0, i32 8
  store i32 0, ptr %39, align 4, !tbaa !65
  %40 = getelementptr inbounds nuw %"class.ncnn::Mat", ptr %5, i32 0, i32 9
  store i32 0, ptr %40, align 8, !tbaa !66
  %41 = getelementptr inbounds nuw %"class.ncnn::Mat", ptr %5, i32 0, i32 10
  store i64 0, ptr %41, align 8, !tbaa !67
  %42 = getelementptr inbounds nuw %"class.ncnn::Mat", ptr %5, i32 0, i32 1
  store ptr null, ptr %42, align 8, !tbaa !59
  ret void
}

; Function Attrs: mustprogress uwtable
define hidden noundef i32 @_ZN4ncnn12LSTM_x86_avx15create_pipelineERKNS_6OptionE(ptr noundef nonnull align 8 dereferenceable(1024) %0, ptr noundef nonnull align 8 dereferenceable(64) %1) unnamed_addr #2 align 2 {
  %3 = alloca i32, align 4
  %4 = alloca ptr, align 8
  %5 = alloca ptr, align 8
  %6 = alloca i32, align 4
  %7 = alloca i32, align 4
  %8 = call i32 @__kmpc_global_thread_num(ptr @2)
  store ptr %0, ptr %4, align 8, !tbaa !4
  store ptr %1, ptr %5, align 8, !tbaa !11
  %9 = load ptr, ptr %4, align 8
  %10 = getelementptr inbounds nuw %"class.ncnn::LSTM", ptr %9, i32 0, i32 5
  %11 = load i32, ptr %10, align 8, !tbaa !13
  %12 = icmp ne i32 %11, 0
  br i1 %12, label %13, label %16

13:                                               ; preds = %2
  %14 = load ptr, ptr %5, align 8, !tbaa !11
  %15 = call noundef i32 @_ZN4ncnn12LSTM_x86_avx20create_pipeline_int8ERKNS_6OptionE(ptr noundef nonnull align 8 dereferenceable(1024) %9, ptr noundef nonnull align 8 dereferenceable(64) %14)
  store i32 %15, ptr %3, align 4
  br label %66

16:                                               ; preds = %2
  call void @llvm.lifetime.start.p0(i64 4, ptr %6) #9
  %17 = getelementptr inbounds nuw %"class.ncnn::LSTM", ptr %9, i32 0, i32 3
  %18 = load i32, ptr %17, align 8, !tbaa !34
  %19 = icmp eq i32 %18, 2
  %20 = select i1 %19, i32 2, i32 1
  store i32 %20, ptr %6, align 4, !tbaa !35
  call void @llvm.lifetime.start.p0(i64 4, ptr %7) #9
  %21 = getelementptr inbounds nuw %"class.ncnn::LSTM", ptr %9, i32 0, i32 2
  %22 = load i32, ptr %21, align 4, !tbaa !36
  %23 = load i32, ptr %6, align 4, !tbaa !35
  %24 = sdiv i32 %22, %23
  %25 = getelementptr inbounds nuw %"class.ncnn::LSTM", ptr %9, i32 0, i32 4
  %26 = load i32, ptr %25, align 4, !tbaa !37
  %27 = sdiv i32 %24, %26
  %28 = sdiv i32 %27, 4
  store i32 %28, ptr %7, align 4, !tbaa !35
  %29 = getelementptr inbounds nuw %"class.ncnn::LSTM_x86_avx", ptr %9, i32 0, i32 1
  %30 = load i32, ptr %7, align 4, !tbaa !35
  %31 = getelementptr inbounds nuw %"class.ncnn::LSTM", ptr %9, i32 0, i32 4
  %32 = load i32, ptr %31, align 4, !tbaa !37
  %33 = sdiv i32 %32, 2
  %34 = getelementptr inbounds nuw %"class.ncnn::LSTM", ptr %9, i32 0, i32 4
  %35 = load i32, ptr %34, align 4, !tbaa !37
  %36 = srem i32 %35, 2
  %37 = add nsw i32 %33, %36
  %38 = load i32, ptr %6, align 4, !tbaa !35
  call void @_ZN4ncnn3Mat6createEiiimiPNS_9AllocatorE(ptr noundef nonnull align 8 dereferenceable(72) %29, i32 noundef %30, i32 noundef %37, i32 noundef %38, i64 noundef 32, i32 noundef 8, ptr noundef null)
  %39 = getelementptr inbounds nuw %"class.ncnn::LSTM_x86_avx", ptr %9, i32 0, i32 2
  %40 = getelementptr inbounds nuw %"class.ncnn::LSTM", ptr %9, i32 0, i32 4
  %41 = load i32, ptr %40, align 4, !tbaa !37
  %42 = load i32, ptr %6, align 4, !tbaa !35
  call void @_ZN4ncnn3Mat6createEiiimiPNS_9AllocatorE(ptr noundef nonnull align 8 dereferenceable(72) %39, i32 noundef %41, i32 noundef 1, i32 noundef %42, i64 noundef 16, i32 noundef 4, ptr noundef null)
  %43 = getelementptr inbounds nuw %"class.ncnn::LSTM_x86_avx", ptr %9, i32 0, i32 3
  %44 = getelementptr inbounds nuw %"class.ncnn::LSTM", ptr %9, i32 0, i32 1
  %45 = load i32, ptr %44, align 8, !tbaa !38
  %46 = getelementptr inbounds nuw %"class.ncnn::LSTM", ptr %9, i32 0, i32 4
  %47 = load i32, ptr %46, align 4, !tbaa !37
  %48 = sdiv i32 %47, 2
  %49 = getelementptr inbounds nuw %"class.ncnn::LSTM", ptr %9, i32 0, i32 4
  %50 = load i32, ptr %49, align 4, !tbaa !37
  %51 = srem i32 %50, 2
  %52 = add nsw i32 %48, %51
  %53 = load i32, ptr %6, align 4, !tbaa !35
  call void @_ZN4ncnn3Mat6createEiiimiPNS_9AllocatorE(ptr noundef nonnull align 8 dereferenceable(72) %43, i32 noundef %45, i32 noundef %52, i32 noundef %53, i64 noundef 32, i32 noundef 8, ptr noundef null)
  %54 = load ptr, ptr %5, align 8, !tbaa !11
  %55 = getelementptr inbounds nuw %"class.ncnn::Option", ptr %54, i32 0, i32 1
  %56 = load i32, ptr %55, align 4, !tbaa !39
  call void @__kmpc_push_num_threads(ptr @2, i32 %8, i32 %56)
  call void (ptr, i32, ptr, ...) @__kmpc_fork_call(ptr @2, i32 3, ptr @_ZN4ncnn12LSTM_x86_avx15create_pipelineERKNS_6OptionE.omp_outlined, ptr %6, ptr %9, ptr %7)
  %57 = load ptr, ptr %5, align 8, !tbaa !11
  %58 = getelementptr inbounds nuw %"class.ncnn::Option", ptr %57, i32 0, i32 0
  %59 = load i8, ptr %58, align 8, !tbaa !41, !range !42, !noundef !43
  %60 = trunc i8 %59 to i1
  br i1 %60, label %61, label %65

61:                                               ; preds = %16
  %62 = getelementptr inbounds nuw %"class.ncnn::LSTM", ptr %9, i32 0, i32 7
  call void @_ZN4ncnn3Mat7releaseEv(ptr noundef nonnull align 8 dereferenceable(72) %62)
  %63 = getelementptr inbounds nuw %"class.ncnn::LSTM", ptr %9, i32 0, i32 8
  call void @_ZN4ncnn3Mat7releaseEv(ptr noundef nonnull align 8 dereferenceable(72) %63)
  %64 = getelementptr inbounds nuw %"class.ncnn::LSTM", ptr %9, i32 0, i32 6
  call void @_ZN4ncnn3Mat7releaseEv(ptr noundef nonnull align 8 dereferenceable(72) %64)
  br label %65

65:                                               ; preds = %61, %16
  store i32 0, ptr %3, align 4
  call void @llvm.lifetime.end.p0(i64 4, ptr %7) #9
  call void @llvm.lifetime.end.p0(i64 4, ptr %6) #9
  br label %66

66:                                               ; preds = %65, %13
  %67 = load i32, ptr %3, align 4
  ret i32 %67
}