; Function Attrs: mustprogress uwtable
define hidden noundef i32 @_ZN4ncnn12LSTM_x86_avx15create_pipelineERKNS_6OptionE(ptr noundef nonnull align 8 dereferenceable(1024) %0, ptr noundef nonnull align 8 dereferenceable(64) %1) unnamed_addr #2 align 2 {
  %3 = alloca i32, align 4
  %4 = alloca i32, align 4
  %5 = tail call i32 @__kmpc_global_thread_num(ptr nonnull @2)
  %6 = getelementptr inbounds nuw i8, ptr %0, i64 224
  %7 = load i32, ptr %6, align 8, !tbaa !18
  %.not = icmp eq i32 %7, 0
  br i1 %.not, label %10, label %8

8:                                                ; preds = %2
  %9 = tail call noundef i32 @_ZN4ncnn12LSTM_x86_avx20create_pipeline_int8ERKNS_6OptionE(ptr noundef nonnull align 8 dereferenceable(1024) %0, ptr noundef nonnull align 8 dereferenceable(64) %1)
  br label %95

10:                                               ; preds = %2
  call void @llvm.lifetime.start.p0(i64 4, ptr nonnull %3) #9
  %11 = getelementptr inbounds nuw i8, ptr %0, i64 216
  %12 = load i32, ptr %11, align 8, !tbaa !34
  %13 = icmp eq i32 %12, 2
  %14 = select i1 %13, i32 2, i32 1
  store i32 %14, ptr %3, align 4, !tbaa !35
  call void @llvm.lifetime.start.p0(i64 4, ptr nonnull %4) #9
  %15 = getelementptr inbounds nuw i8, ptr %0, i64 212
  %16 = load i32, ptr %15, align 4, !tbaa !36
  %17 = sdiv i32 %16, %14
  %18 = getelementptr inbounds nuw i8, ptr %0, i64 220
  %19 = load i32, ptr %18, align 4, !tbaa !37
  %20 = sdiv i32 %17, %19
  %21 = sdiv i32 %20, 4
  store i32 %21, ptr %4, align 4, !tbaa !35
  %22 = getelementptr inbounds nuw i8, ptr %0, i64 664
  %23 = sdiv i32 %19, 2
  %24 = srem i32 %19, 2
  %25 = add nsw i32 %23, %24
  tail call void @_ZN4ncnn3Mat6createEiiimiPNS_9AllocatorE(ptr noundef nonnull align 8 dereferenceable(72) %22, i32 noundef %21, i32 noundef %25, i32 noundef %14, i64 noundef 32, i32 noundef 8, ptr noundef null)
  %26 = getelementptr inbounds nuw i8, ptr %0, i64 736
  %27 = load i32, ptr %18, align 4, !tbaa !37
  tail call void @_ZN4ncnn3Mat6createEiiimiPNS_9AllocatorE(ptr noundef nonnull align 8 dereferenceable(72) %26, i32 noundef %27, i32 noundef 1, i32 noundef %14, i64 noundef 16, i32 noundef 4, ptr noundef null)
  %28 = getelementptr inbounds nuw i8, ptr %0, i64 808
  %29 = getelementptr inbounds nuw i8, ptr %0, i64 208
  %30 = load i32, ptr %29, align 8, !tbaa !38
  %31 = load i32, ptr %18, align 4, !tbaa !37
  %32 = sdiv i32 %31, 2
  %33 = srem i32 %31, 2
  %34 = add nsw i32 %32, %33
  tail call void @_ZN4ncnn3Mat6createEiiimiPNS_9AllocatorE(ptr noundef nonnull align 8 dereferenceable(72) %28, i32 noundef %30, i32 noundef %34, i32 noundef %14, i64 noundef 32, i32 noundef 8, ptr noundef null)
  %35 = getelementptr inbounds nuw i8, ptr %1, i64 4
  %36 = load i32, ptr %35, align 4, !tbaa !39
  tail call void @__kmpc_push_num_threads(ptr nonnull @2, i32 %5, i32 %36)
  call void (ptr, i32, ptr, ...) @__kmpc_fork_call(ptr nonnull @2, i32 3, ptr nonnull @_ZN4ncnn12LSTM_x86_avx15create_pipelineERKNS_6OptionE.omp_outlined, ptr nonnull %3, ptr nonnull %0, ptr nonnull %4)
  %37 = load i8, ptr %1, align 8, !tbaa !41, !range !42, !noundef !43
  %38 = trunc nuw i8 %37 to i1
  br i1 %38, label %39, label %94

39:                                               ; preds = %10
  %40 = getelementptr inbounds nuw i8, ptr %0, i64 304
  %41 = getelementptr inbounds nuw i8, ptr %0, i64 312
  %42 = load ptr, ptr %41, align 8, !tbaa !7
  %.not.i = icmp eq ptr %42, null
  br i1 %.not.i, label %_ZN4ncnn3Mat7releaseEv.exit, label %43

43:                                               ; preds = %39
  %44 = atomicrmw add ptr %42, i32 -1 acq_rel, align 4
  %45 = icmp eq i32 %44, 1
  br i1 %45, label %46, label %_ZN4ncnn3Mat7releaseEv.exit

46:                                               ; preds = %43
  %47 = getelementptr inbounds nuw i8, ptr %0, i64 336
  %48 = load ptr, ptr %47, align 8, !tbaa !15
  %.not3.i = icmp eq ptr %48, null
  %49 = load ptr, ptr %40, align 8, !tbaa !16
  br i1 %.not3.i, label %54, label %50

50:                                               ; preds = %46
  %51 = load ptr, ptr %48, align 8, !tbaa !4
  %52 = getelementptr inbounds nuw i8, ptr %51, i64 24
  %53 = load ptr, ptr %52, align 8
  call void %53(ptr noundef nonnull align 8 dereferenceable(8) %48, ptr noundef %49)
  br label %_ZN4ncnn3Mat7releaseEv.exit

54:                                               ; preds = %46
  %.not.i13 = icmp eq ptr %49, null
  br i1 %.not.i13, label %_ZN4ncnn3Mat7releaseEv.exit, label %55

55:                                               ; preds = %54
  call void @free(ptr noundef nonnull %49) #9
  br label %_ZN4ncnn3Mat7releaseEv.exit

_ZN4ncnn3Mat7releaseEv.exit:                      ; preds = %55, %54, %39, %43, %50
  %56 = getelementptr inbounds nuw i8, ptr %0, i64 344
  %57 = getelementptr inbounds nuw i8, ptr %0, i64 368
  store i64 0, ptr %57, align 8, !tbaa !17
  %58 = getelementptr inbounds nuw i8, ptr %0, i64 376
  %59 = getelementptr inbounds nuw i8, ptr %0, i64 384
  call void @llvm.memset.p0.i64(ptr noundef nonnull align 8 dereferenceable(28) %40, i8 0, i64 28, i1 false)
  call void @llvm.memset.p0.i64(ptr noundef nonnull align 8 dereferenceable(20) %56, i8 0, i64 20, i1 false)
  %60 = load ptr, ptr %59, align 8, !tbaa !7
  %.not.i4 = icmp eq ptr %60, null
  br i1 %.not.i4, label %_ZN4ncnn3Mat7releaseEv.exit6, label %61

61:                                               ; preds = %_ZN4ncnn3Mat7releaseEv.exit
  %62 = atomicrmw add ptr %60, i32 -1 acq_rel, align 4
  %63 = icmp eq i32 %62, 1
  br i1 %63, label %64, label %_ZN4ncnn3Mat7releaseEv.exit6

64:                                               ; preds = %61
  %65 = getelementptr inbounds nuw i8, ptr %0, i64 408
  %66 = load ptr, ptr %65, align 8, !tbaa !15
  %.not3.i5 = icmp eq ptr %66, null
  %67 = load ptr, ptr %58, align 8, !tbaa !16
  br i1 %.not3.i5, label %72, label %68

68:                                               ; preds = %64
  %69 = load ptr, ptr %66, align 8, !tbaa !4
  %70 = getelementptr inbounds nuw i8, ptr %69, i64 24
  %71 = load ptr, ptr %70, align 8
  call void %71(ptr noundef nonnull align 8 dereferenceable(8) %66, ptr noundef %67)
  br label %_ZN4ncnn3Mat7releaseEv.exit6

72:                                               ; preds = %64
  %.not.i11 = icmp eq ptr %67, null
  br i1 %.not.i11, label %_ZN4ncnn3Mat7releaseEv.exit6, label %73

73:                                               ; preds = %72
  call void @free(ptr noundef nonnull %67) #9
  br label %_ZN4ncnn3Mat7releaseEv.exit6

_ZN4ncnn3Mat7releaseEv.exit6:                     ; preds = %73, %72, %_ZN4ncnn3Mat7releaseEv.exit, %61, %68
  %74 = getelementptr inbounds nuw i8, ptr %0, i64 416
  %75 = getelementptr inbounds nuw i8, ptr %0, i64 440
  store i64 0, ptr %75, align 8, !tbaa !17
  %76 = getelementptr inbounds nuw i8, ptr %0, i64 232
  %77 = getelementptr inbounds nuw i8, ptr %0, i64 240
  call void @llvm.memset.p0.i64(ptr noundef nonnull align 8 dereferenceable(28) %58, i8 0, i64 28, i1 false)
  call void @llvm.memset.p0.i64(ptr noundef nonnull align 8 dereferenceable(20) %74, i8 0, i64 20, i1 false)
  %78 = load ptr, ptr %77, align 8, !tbaa !7
  %.not.i7 = icmp eq ptr %78, null
  br i1 %.not.i7, label %_ZN4ncnn3Mat7releaseEv.exit9, label %79

79:                                               ; preds = %_ZN4ncnn3Mat7releaseEv.exit6
  %80 = atomicrmw add ptr %78, i32 -1 acq_rel, align 4
  %81 = icmp eq i32 %80, 1
  br i1 %81, label %82, label %_ZN4ncnn3Mat7releaseEv.exit9

82:                                               ; preds = %79
  %83 = getelementptr inbounds nuw i8, ptr %0, i64 264
  %84 = load ptr, ptr %83, align 8, !tbaa !15
  %.not3.i8 = icmp eq ptr %84, null
  %85 = load ptr, ptr %76, align 8, !tbaa !16
  br i1 %.not3.i8, label %90, label %86

86:                                               ; preds = %82
  %87 = load ptr, ptr %84, align 8, !tbaa !4
  %88 = getelementptr inbounds nuw i8, ptr %87, i64 24
  %89 = load ptr, ptr %88, align 8
  call void %89(ptr noundef nonnull align 8 dereferenceable(8) %84, ptr noundef %85)
  br label %_ZN4ncnn3Mat7releaseEv.exit9

90:                                               ; preds = %82
  %.not.i10 = icmp eq ptr %85, null
  br i1 %.not.i10, label %_ZN4ncnn3Mat7releaseEv.exit9, label %91

91:                                               ; preds = %90
  call void @free(ptr noundef nonnull %85) #9
  br label %_ZN4ncnn3Mat7releaseEv.exit9

_ZN4ncnn3Mat7releaseEv.exit9:                     ; preds = %91, %90, %_ZN4ncnn3Mat7releaseEv.exit6, %79, %86
  %92 = getelementptr inbounds nuw i8, ptr %0, i64 272
  %93 = getelementptr inbounds nuw i8, ptr %0, i64 296
  store i64 0, ptr %93, align 8, !tbaa !17
  call void @llvm.memset.p0.i64(ptr noundef nonnull align 8 dereferenceable(28) %76, i8 0, i64 28, i1 false)
  call void @llvm.memset.p0.i64(ptr noundef nonnull align 8 dereferenceable(20) %92, i8 0, i64 20, i1 false)
  br label %94

94:                                               ; preds = %_ZN4ncnn3Mat7releaseEv.exit9, %10
  call void @llvm.lifetime.end.p0(i64 4, ptr nonnull %4) #9
  call void @llvm.lifetime.end.p0(i64 4, ptr nonnull %3) #9
  br label %95

95:                                               ; preds = %94, %8
  ret i32 0
}